target datalayout = "e-m:e-p270:32:32-p271:32:32-p272:64:64-i64:64-i128:128-f80:128-n8:16:32:64-S128"
target triple = "x86_64-unknown-linux-gnu"

%"class.OpenColorIO_v2_4dev::ArrayT" = type { %"class.OpenColorIO_v2_4dev::ArrayBase", i64, i64, %"class.std::vector" }
%"class.OpenColorIO_v2_4dev::ArrayBase" = type { ptr }
%"class.std::vector" = type { %"struct.std::_Vector_base" }
%"struct.std::_Vector_base" = type { %"struct.std::_Vector_base<float, std::allocator<float>>::_Vector_impl" }
%"struct.std::_Vector_base<float, std::allocator<float>>::_Vector_impl" = type { %"struct.std::_Vector_base<float, std::allocator<float>>::_Vector_impl_data" }
%"struct.std::_Vector_base<float, std::allocator<float>>::_Vector_impl_data" = type { ptr, ptr, ptr }
%"class.Imath_3_1::half" = type { i16 }
%union.imath_half_uif = type { i32 }

; Function Attrs: noreturn nounwind uwtable
define linkonce_odr hidden void @__clang_call_terminate(ptr noundef %0) #9 comdat {
  %2 = call ptr @__cxa_begin_catch(ptr %0) #3
  call void @_ZSt9terminatev() #16
  unreachable
}

; Function Attrs: mustprogress nounwind uwtable
define internal noundef zeroext i16 @_ZL19imath_float_to_halff(float noundef %f) #5 {
entry:
  %retval = alloca i16, align 2
  %f.addr = alloca float, align 4
  %v = alloca %union.imath_half_uif, align 4
  %ret = alloca i16, align 2
  %e = alloca i32, align 4
  %m = alloca i32, align 4
  %ui = alloca i32, align 4
  %r = alloca i32, align 4
  %shift = alloca i32, align 4
  store float %f, ptr %f.addr, align 4
  %0 = load float, ptr %f.addr, align 4
  store float %0, ptr %v, align 4
  %1 = load i32, ptr %v, align 4
  %and = and i32 %1, 2147483647
  store i32 %and, ptr %ui, align 4
  %2 = load i32, ptr %v, align 4
  %shr = lshr i32 %2, 16
  %and1 = and i32 %shr, 32768
  %conv = trunc i32 %and1 to i16
  store i16 %conv, ptr %ret, align 2
  %3 = load i32, ptr %ui, align 4
  %cmp = icmp uge i32 %3, 947912704
  br i1 %cmp, label %if.then, label %if.end37

if.then:                                          ; preds = %entry
  %4 = load i32, ptr %ui, align 4
  %cmp2 = icmp uge i32 %4, 2139095040
  br i1 %cmp2, label %if.then4, label %if.end20

if.then4:                                         ; preds = %if.then
  %5 = load i16, ptr %ret, align 2
  %conv5 = zext i16 %5 to i32
  %or = or i32 %conv5, 31744
  %conv6 = trunc i32 %or to i16
  store i16 %conv6, ptr %ret, align 2
  %6 = load i32, ptr %ui, align 4
  %cmp7 = icmp eq i32 %6, 2139095040
  br i1 %cmp7, label %if.then8, label %if.end

if.then8:                                         ; preds = %if.then4
  %7 = load i16, ptr %ret, align 2
  store i16 %7, ptr %retval, align 2
  br label %return

if.end:                                           ; preds = %if.then4
  %8 = load i32, ptr %ui, align 4
  %and9 = and i32 %8, 8388607
  %shr10 = lshr i32 %and9, 13
  store i32 %shr10, ptr %m, align 4
  %9 = load i16, ptr %ret, align 2
  %conv11 = zext i16 %9 to i32
  %10 = load i32, ptr %m, align 4
  %conv12 = trunc i32 %10 to i16
  %conv13 = zext i16 %conv12 to i32
  %or14 = or i32 %conv11, %conv13
  %11 = load i32, ptr %m, align 4
  %cmp15 = icmp eq i32 %11, 0
  %conv16 = zext i1 %cmp15 to i16
  %conv17 = zext i16 %conv16 to i32
  %or18 = or i32 %or14, %conv17
  %conv19 = trunc i32 %or18 to i16
  store i16 %conv19, ptr %retval, align 2
  br label %return

if.end20:                                         ; preds = %if.then
  %12 = load i32, ptr %ui, align 4
  %cmp21 = icmp ugt i32 %12, 1199566847
  br i1 %cmp21, label %if.then23, label %if.end27

if.then23:                                        ; preds = %if.end20
  %13 = load i16, ptr %ret, align 2
  %conv24 = zext i16 %13 to i32
  %or25 = or i32 %conv24, 31744
  %conv26 = trunc i32 %or25 to i16
  store i16 %conv26, ptr %retval, align 2
  br label %return

if.end27:                                         ; preds = %if.end20
  %14 = load i32, ptr %ui, align 4
  %sub = sub i32 %14, 939524096
  store i32 %sub, ptr %ui, align 4
  %15 = load i32, ptr %ui, align 4
  %add = add i32 %15, 4095
  %16 = load i32, ptr %ui, align 4
  %shr28 = lshr i32 %16, 13
  %and29 = and i32 %shr28, 1
  %add30 = add i32 %add, %and29
  %shr31 = lshr i32 %add30, 13
  store i32 %shr31, ptr %ui, align 4
  %17 = load i16, ptr %ret, align 2
  %conv32 = zext i16 %17 to i32
  %18 = load i32, ptr %ui, align 4
  %conv33 = trunc i32 %18 to i16
  %conv34 = zext i16 %conv33 to i32
  %or35 = or i32 %conv32, %conv34
  %conv36 = trunc i32 %or35 to i16
  store i16 %conv36, ptr %retval, align 2
  br label %return

if.end37:                                         ; preds = %entry
  %19 = load i32, ptr %ui, align 4
  %cmp38 = icmp ult i32 %19, 855638017
  br i1 %cmp38, label %if.then39, label %if.end40

if.then39:                                        ; preds = %if.end37
  %20 = load i16, ptr %ret, align 2
  store i16 %20, ptr %retval, align 2
  br label %return

if.end40:                                         ; preds = %if.end37
  %21 = load i32, ptr %ui, align 4
  %shr41 = lshr i32 %21, 23
  store i32 %shr41, ptr %e, align 4
  %22 = load i32, ptr %e, align 4
  %sub42 = sub i32 126, %22
  store i32 %sub42, ptr %shift, align 4
  %23 = load i32, ptr %ui, align 4
  %and43 = and i32 %23, 8388607
  %or44 = or i32 8388608, %and43
  store i32 %or44, ptr %m, align 4
  %24 = load i32, ptr %m, align 4
  %25 = load i32, ptr %shift, align 4
  %sub45 = sub i32 32, %25
  %shl = shl i32 %24, %sub45
  store i32 %shl, ptr %r, align 4
  %26 = load i32, ptr %m, align 4
  %27 = load i32, ptr %shift, align 4
  %shr46 = lshr i32 %26, %27
  %28 = load i16, ptr %ret, align 2
  %conv47 = zext i16 %28 to i32
  %or48 = or i32 %conv47, %shr46
  %conv49 = trunc i32 %or48 to i16
  store i16 %conv49, ptr %ret, align 2
  %29 = load i32, ptr %r, align 4
  %cmp50 = icmp ugt i32 %29, -2147483648
  br i1 %cmp50, label %if.then55, label %lor.lhs.false

lor.lhs.false:                                    ; preds = %if.end40
  %30 = load i32, ptr %r, align 4
  %cmp51 = icmp eq i32 %30, -2147483648
  br i1 %cmp51, label %land.lhs.true, label %if.end56

land.lhs.true:                                    ; preds = %lor.lhs.false
  %31 = load i16, ptr %ret, align 2
  %conv52 = zext i16 %31 to i32
  %and53 = and i32 %conv52, 1
  %cmp54 = icmp ne i32 %and53, 0
  br i1 %cmp54, label %if.then55, label %if.end56

if.then55:                                        ; preds = %land.lhs.true, %if.end40
  %32 = load i16, ptr %ret, align 2
  %inc = add i16 %32, 1
  store i16 %inc, ptr %ret, align 2
  br label %if.end56

if.end56:                                         ; preds = %if.then55, %land.lhs.true, %lor.lhs.false
  %33 = load i16, ptr %ret, align 2
  store i16 %33, ptr %retval, align 2
  br label %return

return:                                           ; preds = %if.end56, %if.then39, %if.end27, %if.then23, %if.end, %if.then8
  %34 = load i16, ptr %retval, align 2
  ret i16 %34
}

; Function Attrs: mustprogress nounwind uwtable
define linkonce_odr noundef float @_ZSt4fabsf(float noundef %__x) #5 comdat {
entry:
  %__x.addr = alloca float, align 4
  store float %__x, ptr %__x.addr, align 4
  %0 = load float, ptr %__x.addr, align 4
  %1 = call float @llvm.fabs.f32(float %0)
  ret float %1
}

; Function Attrs: mustprogress nounwind uwtable
define linkonce_odr hidden void @_ZN9Imath_3_14halfC2Ef(ptr noundef nonnull align 2 dereferenceable(2) %this, float noundef %f) unnamed_addr #5 comdat align 2 personality ptr @__gxx_personality_v0 {
entry:
  %this.addr = alloca ptr, align 8
  %f.addr = alloca float, align 4
  store ptr %this, ptr %this.addr, align 8
  store float %f, ptr %f.addr, align 4
  %this1 = load ptr, ptr %this.addr, align 8
  %_h = getelementptr inbounds %"class.Imath_3_1::half", ptr %this1, i32 0, i32 0
  %0 = load float, ptr %f.addr, align 4
  %call = invoke noundef zeroext i16 @_ZL19imath_float_to_halff(float noundef %0)
          to label %invoke.cont unwind label %terminate.lpad

invoke.cont:                                      ; preds = %entry
  store i16 %call, ptr %_h, align 2
  ret void

terminate.lpad:                                   ; preds = %entry
  %1 = landingpad { ptr, i32 }
          catch ptr null
  %2 = extractvalue { ptr, i32 } %1, 0
  call void @__clang_call_terminate(ptr %2) #16
  unreachable
}

; Function Attrs: mustprogress nounwind uwtable
define linkonce_odr hidden noundef nonnull align 4 dereferenceable(4) ptr @_ZNKSt6vectorIfSaIfEEixEm(ptr noundef nonnull align 8 dereferenceable(24) %this, i64 noundef %__n) #5 comdat align 2 {
entry:
  %this.addr = alloca ptr, align 8
  %__n.addr = alloca i64, align 8
  store ptr %this, ptr %this.addr, align 8
  store i64 %__n, ptr %__n.addr, align 8
  %this1 = load ptr, ptr %this.addr, align 8
  %_M_impl = getelementptr inbounds %"struct.std::_Vector_base", ptr %this1, i32 0, i32 0
  %_M_start = getelementptr inbounds %"struct.std::_Vector_base<float, std::allocator<float>>::_Vector_impl_data", ptr %_M_impl, i32 0, i32 0
  %0 = load ptr, ptr %_M_start, align 8
  %1 = load i64, ptr %__n.addr, align 8
  %add.ptr = getelementptr inbounds float, ptr %0, i64 %1
  ret ptr %add.ptr
}

; Function Attrs: mustprogress nounwind uwtable
define linkonce_odr void @_ZN9Imath_3_14half7setBitsEt(ptr noundef nonnull align 2 dereferenceable(2) %this, i16 noundef zeroext %bits) #5 comdat align 2 {
entry:
  %this.addr = alloca ptr, align 8
  %bits.addr = alloca i16, align 2
  store ptr %this, ptr %this.addr, align 8
  store i16 %bits, ptr %bits.addr, align 2
  %this1 = load ptr, ptr %this.addr, align 8
  %0 = load i16, ptr %bits.addr, align 2
  %_h = getelementptr inbounds %"class.Imath_3_1::half", ptr %this1, i32 0, i32 0
  store i16 %0, ptr %_h, align 2
  ret void
}

; Function Attrs: mustprogress nounwind uwtable
define linkonce_odr hidden noundef zeroext i1 @_ZN19OpenColorIO_v2_4dev11Lut1DOpData17IsInputHalfDomainENS0_9HalfFlagsE(i32 noundef %halfFlags) #5 comdat align 2 {
entry:
  %halfFlags.addr = alloca i32, align 4
  store i32 %halfFlags, ptr %halfFlags.addr, align 4
  %0 = load i32, ptr %halfFlags.addr, align 4
  %and = and i32 %0, 1
  %cmp = icmp eq i32 %and, 1
  ret i1 %cmp
}

; Function Attrs: mustprogress nounwind uwtable
define linkonce_odr hidden noundef i64 @_ZNK19OpenColorIO_v2_4dev6ArrayTIfE21getMaxColorComponentsEv(ptr noundef nonnull align 8 dereferenceable(48) %this) #5 comdat align 2 {
entry:
  %this.addr = alloca ptr, align 8
  store ptr %this, ptr %this.addr, align 8
  ret i64 3
}

; Function Attrs: mustprogress nounwind uwtable
define linkonce_odr hidden noundef nonnull align 8 dereferenceable(24) ptr @_ZNK19OpenColorIO_v2_4dev6ArrayTIfE9getValuesEv(ptr noundef nonnull align 8 dereferenceable(48) %this) #5 comdat align 2 {
entry:
  %this.addr = alloca ptr, align 8
  store ptr %this, ptr %this.addr, align 8
  %this1 = load ptr, ptr %this.addr, align 8
  %m_data = getelementptr inbounds %"class.OpenColorIO_v2_4dev::ArrayT", ptr %this1, i32 0, i32 3
  ret ptr %m_data
}

; Function Attrs: mustprogress uwtable
define hidden noundef zeroext i1 @_ZNK19OpenColorIO_v2_4dev11Lut1DOpData13Lut3by1DArray10isIdentityENS0_9HalfFlagsE(ptr noundef nonnull align 8 dereferenceable(48) %this, i32 noundef %halfFlags) #4 align 2 {
entry:
  %retval = alloca i1, align 1
  %this.addr = alloca ptr, align 8
  %halfFlags.addr = alloca i32, align 4
  %dim = alloca i64, align 8
  %values = alloca ptr, align 8
  %maxChannels = alloca i64, align 8
  %idx = alloca i64, align 8
  %aimHalf = alloca %"class.Imath_3_1::half", align 2
  %row = alloca i64, align 8
  %channel = alloca i64, align 8
  %valHalf = alloca %"class.Imath_3_1::half", align 2
  %agg.tmp = alloca %"class.Imath_3_1::half", align 2
  %agg.tmp9 = alloca %"class.Imath_3_1::half", align 2
  %abs_tol = alloca float, align 4
  %stepValue = alloca float, align 4
  %idx17 = alloca i64, align 8
  %aim = alloca float, align 4
  %row23 = alloca i64, align 8
  %channel25 = alloca i64, align 8
  %err = alloca float, align 4
  store ptr %this, ptr %this.addr, align 8
  store i32 %halfFlags, ptr %halfFlags.addr, align 4
  %this1 = load ptr, ptr %this.addr, align 8
  %vtable = load ptr, ptr %this1, align 8
  %vfn = getelementptr inbounds ptr, ptr %vtable, i64 4
  %0 = load ptr, ptr %vfn, align 8
  %call = call noundef i64 %0(ptr noundef nonnull align 8 dereferenceable(48) %this1)
  store i64 %call, ptr %dim, align 8
  %call2 = call noundef nonnull align 8 dereferenceable(24) ptr @_ZNK19OpenColorIO_v2_4dev6ArrayTIfE9getValuesEv(ptr noundef nonnull align 8 dereferenceable(48) %this1)
  store ptr %call2, ptr %values, align 8
  %call3 = call noundef i64 @_ZNK19OpenColorIO_v2_4dev6ArrayTIfE21getMaxColorComponentsEv(ptr noundef nonnull align 8 dereferenceable(48) %this1)
  store i64 %call3, ptr %maxChannels, align 8
  %1 = load i32, ptr %halfFlags.addr, align 4
  %call4 = call noundef zeroext i1 @_ZN19OpenColorIO_v2_4dev11Lut1DOpData17IsInputHalfDomainENS0_9HalfFlagsE(i32 noundef %1) #3
  br i1 %call4, label %if.then, label %if.else

if.then:                                          ; preds = %entry
  store i64 0, ptr %idx, align 8
  br label %for.cond

for.cond:                                         ; preds = %for.inc13, %if.then
  %2 = load i64, ptr %idx, align 8
  %3 = load i64, ptr %dim, align 8
  %cmp = icmp ult i64 %2, %3
  br i1 %cmp, label %for.body, label %for.end15

for.body:                                         ; preds = %for.cond
  %4 = load i64, ptr %idx, align 8
  %conv = trunc i64 %4 to i16
  call void @_ZN9Imath_3_14half7setBitsEt(ptr noundef nonnull align 2 dereferenceable(2) %aimHalf, i16 noundef zeroext %conv) #3
  %5 = load i64, ptr %maxChannels, align 8
  %6 = load i64, ptr %idx, align 8
  %mul = mul i64 %5, %6
  store i64 %mul, ptr %row, align 8
  store i64 0, ptr %channel, align 8
  br label %for.cond5

for.cond5:                                        ; preds = %for.inc, %for.body
  %7 = load i64, ptr %channel, align 8
  %8 = load i64, ptr %maxChannels, align 8
  %cmp6 = icmp ult i64 %7, %8
  br i1 %cmp6, label %for.body7, label %for.end

for.body7:                                        ; preds = %for.cond5
  %9 = load ptr, ptr %values, align 8
  %10 = load i64, ptr %channel, align 8
  %11 = load i64, ptr %row, align 8
  %add = add i64 %10, %11
  %call8 = call noundef nonnull align 4 dereferenceable(4) ptr @_ZNKSt6vectorIfSaIfEEixEm(ptr noundef nonnull align 8 dereferenceable(24) %9, i64 noundef %add) #3
  %12 = load float, ptr %call8, align 4
  call void @_ZN9Imath_3_14halfC2Ef(ptr noundef nonnull align 2 dereferenceable(2) %valHalf, float noundef %12) #3
  call void @llvm.memcpy.p0.p0.i64(ptr align 2 %agg.tmp, ptr align 2 %aimHalf, i64 2, i1 false)
  call void @llvm.memcpy.p0.p0.i64(ptr align 2 %agg.tmp9, ptr align 2 %valHalf, i64 2, i1 false)
  %coerce.dive = getelementptr inbounds %"class.Imath_3_1::half", ptr %agg.tmp, i32 0, i32 0
  %13 = load i16, ptr %coerce.dive, align 2
  %coerce.dive10 = getelementptr inbounds %"class.Imath_3_1::half", ptr %agg.tmp9, i32 0, i32 0
  %14 = load i16, ptr %coerce.dive10, align 2
  %call11 = call noundef zeroext i1 @_ZN19OpenColorIO_v2_4dev11HalfsDifferEN9Imath_3_14halfES1_i(i16 %13, i16 %14, i32 noundef 1)
  br i1 %call11, label %if.then12, label %if.end

if.then12:                                        ; preds = %for.body7
  store i1 false, ptr %retval, align 1
  br label %return

if.end:                                           ; preds = %for.body7
  br label %for.inc

for.inc:                                          ; preds = %if.end
  %15 = load i64, ptr %channel, align 8
  %inc = add i64 %15, 1
  store i64 %inc, ptr %channel, align 8
  br label %for.cond5, !llvm.loop !9

for.end:                                          ; preds = %for.cond5
  br label %for.inc13

for.inc13:                                        ; preds = %for.end
  %16 = load i64, ptr %idx, align 8
  %inc14 = add i64 %16, 1
  store i64 %inc14, ptr %idx, align 8
  br label %for.cond, !llvm.loop !10

for.end15:                                        ; preds = %for.cond
  br label %if.end42

if.else:                                          ; preds = %entry
  store float 0x3EE4F8B580000000, ptr %abs_tol, align 4
  %17 = load i64, ptr %dim, align 8
  %conv16 = uitofp i64 %17 to float
  %sub = fsub float %conv16, 1.000000e+00
  %div = fdiv float 1.000000e+00, %sub
  store float %div, ptr %stepValue, align 4
  store i64 0, ptr %idx17, align 8
  br label %for.cond18

for.cond18:                                       ; preds = %for.inc39, %if.else
  %18 = load i64, ptr %idx17, align 8
  %19 = load i64, ptr %dim, align 8
  %cmp19 = icmp ult i64 %18, %19
  br i1 %cmp19, label %for.body20, label %for.end41

for.body20:                                       ; preds = %for.cond18
  %20 = load i64, ptr %idx17, align 8
  %conv21 = uitofp i64 %20 to float
  %21 = load float, ptr %stepValue, align 4
  %mul22 = fmul float %conv21, %21
  store float %mul22, ptr %aim, align 4
  %22 = load i64, ptr %maxChannels, align 8
  %23 = load i64, ptr %idx17, align 8
  %mul24 = mul i64 %22, %23
  store i64 %mul24, ptr %row23, align 8
  store i64 0, ptr %channel25, align 8
  br label %for.cond26

for.cond26:                                       ; preds = %for.inc36, %for.body20
  %24 = load i64, ptr %channel25, align 8
  %25 = load i64, ptr %maxChannels, align 8
  %cmp27 = icmp ult i64 %24, %25
  br i1 %cmp27, label %for.body28, label %for.end38

for.body28:                                       ; preds = %for.cond26
  %26 = load ptr, ptr %values, align 8
  %27 = load i64, ptr %channel25, align 8
  %28 = load i64, ptr %row23, align 8
  %add29 = add i64 %27, %28
  %call30 = call noundef nonnull align 4 dereferenceable(4) ptr @_ZNKSt6vectorIfSaIfEEixEm(ptr noundef nonnull align 8 dereferenceable(24) %26, i64 noundef %add29) #3
  %29 = load float, ptr %call30, align 4
  %30 = load float, ptr %aim, align 4
  %sub31 = fsub float %29, %30
  store float %sub31, ptr %err, align 4
  %31 = load float, ptr %err, align 4
  %call32 = call noundef float @_ZSt4fabsf(float noundef %31)
  %cmp33 = fcmp ogt float %call32, 0x3EE4F8B580000000
  br i1 %cmp33, label %if.then34, label %if.end35

if.then34:                                        ; preds = %for.body28
  store i1 false, ptr %retval, align 1
  br label %return

if.end35:                                         ; preds = %for.body28
  br label %for.inc36

for.inc36:                                        ; preds = %if.end35
  %32 = load i64, ptr %channel25, align 8
  %inc37 = add i64 %32, 1
  store i64 %inc37, ptr %channel25, align 8
  br label %for.cond26, !llvm.loop !11

for.end38:                                        ; preds = %for.cond26
  br label %for.inc39

for.inc39:                                        ; preds = %for.end38
  %33 = load i64, ptr %idx17, align 8
  %inc40 = add i64 %33, 1
  store i64 %inc40, ptr %idx17, align 8
  br label %for.cond18, !llvm.loop !12

for.end41:                                        ; preds = %for.cond18
  br label %if.end42

if.end42:                                         ; preds = %for.end41, %for.end15
  store i1 true, ptr %retval, align 1
  br label %return

return:                                           ; preds = %if.end42, %if.then34, %if.then12
  %34 = load i1, ptr %retval, align 1
  ret i1 %34
}