; Function Attrs: mustprogress uwtable
define hidden noundef zeroext i1 @_ZNK19OpenColorIO_v2_4dev11Lut1DOpData13Lut3by1DArray10isIdentityENS0_9HalfFlagsE(ptr noundef nonnull align 8 dereferenceable(48) %this, i32 noundef %halfFlags) local_unnamed_addr #3 align 2 personality ptr @__gxx_personality_v0 {
entry:
  %vtable = load ptr, ptr %this, align 8
  %vfn = getelementptr inbounds i8, ptr %vtable, i64 32
  %0 = load ptr, ptr %vfn, align 8
  %call = tail call noundef i64 %0(ptr noundef nonnull align 8 dereferenceable(48) %this)
  %m_data.i = getelementptr inbounds i8, ptr %this, i64 24
  %and.i = and i32 %halfFlags, 1
  %cmp.i.not = icmp eq i32 %and.i, 0
  br i1 %cmp.i.not, label %if.else, label %for.cond.preheader

for.cond.preheader:                               ; preds = %entry
  %cmp22.not = icmp eq i64 %call, 0
  br i1 %cmp22.not, label %return, label %for.body

for.body:                                         ; preds = %for.cond.preheader, %for.inc13
  %idx.023 = phi i64 [ %inc14, %for.inc13 ], [ 0, %for.cond.preheader ]
  %conv = trunc i64 %idx.023 to i16
  %mul = mul i64 %idx.023, 3
  br label %for.body7

for.cond5:                                        ; preds = %_ZN9Imath_3_14halfC2Ef.exit
  %inc = add nuw nsw i64 %channel.021, 1
  %exitcond.not = icmp eq i64 %inc, 3
  br i1 %exitcond.not, label %for.inc13, label %for.body7, !llvm.loop !10

for.body7:                                        ; preds = %for.body, %for.cond5
  %channel.021 = phi i64 [ 0, %for.body ], [ %inc, %for.cond5 ]
  %1 = load ptr, ptr %m_data.i, align 8
  %2 = getelementptr float, ptr %1, i64 %channel.021
  %add.ptr.i = getelementptr float, ptr %2, i64 %mul
  %3 = load float, ptr %add.ptr.i, align 4
  %4 = bitcast float %3 to i32
  %5 = tail call float @llvm.fabs.f32(float %3)
  %and.i.i = bitcast float %5 to i32
  %shr.i.i = lshr i32 %4, 16
  %6 = trunc i32 %shr.i.i to i16
  %conv.i.i = and i16 %6, -32768
  %cmp.i.i = icmp ugt i32 %and.i.i, 947912703
  br i1 %cmp.i.i, label %if.then.i.i, label %if.end37.i.i

if.then.i.i:                                      ; preds = %for.body7
  %cmp2.i.i = icmp ugt i32 %and.i.i, 2139095039
  br i1 %cmp2.i.i, label %if.then4.i.i, label %if.end20.i.i

if.then4.i.i:                                     ; preds = %if.then.i.i
  %conv6.i.i = or disjoint i16 %conv.i.i, 31744
  %cmp7.i.i = icmp eq i32 %and.i.i, 2139095040
  br i1 %cmp7.i.i, label %_ZN9Imath_3_14halfC2Ef.exit, label %if.end.i.i

if.end.i.i:                                       ; preds = %if.then4.i.i
  %and9.i.i = lshr i32 %and.i.i, 13
  %shr10.i.i = and i32 %and9.i.i, 1023
  %cmp15.i.i = icmp eq i32 %shr10.i.i, 0
  %7 = zext i1 %cmp15.i.i to i16
  %8 = trunc i32 %shr10.i.i to i16
  %9 = or i16 %8, %7
  %conv19.i.i = or disjoint i16 %9, %conv6.i.i
  br label %_ZN9Imath_3_14halfC2Ef.exit

if.end20.i.i:                                     ; preds = %if.then.i.i
  %cmp21.i.i = icmp ugt i32 %and.i.i, 1199566847
  br i1 %cmp21.i.i, label %if.then23.i.i, label %if.end27.i.i

if.then23.i.i:                                    ; preds = %if.end20.i.i
  %conv26.i.i = or disjoint i16 %conv.i.i, 31744
  br label %_ZN9Imath_3_14halfC2Ef.exit

if.end27.i.i:                                     ; preds = %if.end20.i.i
  %add.i.i = add nuw nsw i32 %and.i.i, 134221823
  %shr28.i.i = lshr i32 %and.i.i, 13
  %and29.i.i = and i32 %shr28.i.i, 1
  %add30.i.i = add nuw nsw i32 %add.i.i, %and29.i.i
  %shr31.i.i = lshr i32 %add30.i.i, 13
  %conv32.i.i = and i32 %shr.i.i, 32768
  %or35.i.i = or i32 %shr31.i.i, %conv32.i.i
  %conv36.i.i = trunc i32 %or35.i.i to i16
  br label %_ZN9Imath_3_14halfC2Ef.exit

if.end37.i.i:                                     ; preds = %for.body7
  %cmp38.i.i = icmp ult i32 %and.i.i, 855638017
  br i1 %cmp38.i.i, label %_ZN9Imath_3_14halfC2Ef.exit, label %if.end40.i.i

if.end40.i.i:                                     ; preds = %if.end37.i.i
  %shr41.i.i = lshr i32 %and.i.i, 23
  %sub42.i.i = sub nuw nsw i32 126, %shr41.i.i
  %and43.i.i = and i32 %and.i.i, 8388607
  %or44.i.i = or disjoint i32 %and43.i.i, 8388608
  %sub45.i.i = add nsw i32 %shr41.i.i, -94
  %shl.i.i = shl i32 %or44.i.i, %sub45.i.i
  %shr46.i.i = lshr i32 %or44.i.i, %sub42.i.i
  %conv47.i.i = and i32 %shr.i.i, 32768
  %or48.i.i = or i32 %shr46.i.i, %conv47.i.i
  %conv49.i.i = trunc i32 %or48.i.i to i16
  %cmp50.i.i = icmp ugt i32 %shl.i.i, -2147483648
  br i1 %cmp50.i.i, label %if.then55.i.i, label %lor.lhs.false.i.i

lor.lhs.false.i.i:                                ; preds = %if.end40.i.i
  %cmp51.i.i = icmp ne i32 %shl.i.i, -2147483648
  %and53.i.i = and i32 %shr46.i.i, 1
  %cmp54.not.i.i = icmp eq i32 %and53.i.i, 0
  %or.cond.i.i = select i1 %cmp51.i.i, i1 true, i1 %cmp54.not.i.i
  br i1 %or.cond.i.i, label %_ZN9Imath_3_14halfC2Ef.exit, label %if.then55.i.i

if.then55.i.i:                                    ; preds = %lor.lhs.false.i.i, %if.end40.i.i
  %inc.i.i = add i16 %conv49.i.i, 1
  br label %_ZN9Imath_3_14halfC2Ef.exit

_ZN9Imath_3_14halfC2Ef.exit:                      ; preds = %if.then4.i.i, %if.end.i.i, %if.then23.i.i, %if.end27.i.i, %if.end37.i.i, %lor.lhs.false.i.i, %if.then55.i.i
  %retval.0.i.i = phi i16 [ %conv19.i.i, %if.end.i.i ], [ %conv26.i.i, %if.then23.i.i ], [ %conv36.i.i, %if.end27.i.i ], [ %conv6.i.i, %if.then4.i.i ], [ %conv.i.i, %if.end37.i.i ], [ %inc.i.i, %if.then55.i.i ], [ %conv49.i.i, %lor.lhs.false.i.i ]
  %call11 = tail call noundef zeroext i1 @_ZN19OpenColorIO_v2_4dev11HalfsDifferEN9Imath_3_14halfES1_i(i16 %conv, i16 %retval.0.i.i, i32 noundef 1)
  br i1 %call11, label %return, label %for.cond5

for.inc13:                                        ; preds = %for.cond5
  %inc14 = add nuw i64 %idx.023, 1
  %exitcond30.not = icmp eq i64 %inc14, %call
  br i1 %exitcond30.not, label %return, label %for.body, !llvm.loop !11

if.else:                                          ; preds = %entry
  %conv16 = uitofp i64 %call to float
  %sub = fadd float %conv16, -1.000000e+00
  %div = fdiv float 1.000000e+00, %sub
  %cmp1925.not = icmp eq i64 %call, 0
  br i1 %cmp1925.not, label %return, label %for.body20.lr.ph

for.body20.lr.ph:                                 ; preds = %if.else
  %10 = load ptr, ptr %m_data.i, align 8
  br label %for.body20

for.body20:                                       ; preds = %for.body20.lr.ph, %for.inc39
  %idx17.026 = phi i64 [ 0, %for.body20.lr.ph ], [ %inc40, %for.inc39 ]
  %conv21 = uitofp i64 %idx17.026 to float
  %mul22 = fmul float %div, %conv21
  %mul24 = mul i64 %idx17.026, 3
  %invariant.gep = getelementptr float, ptr %10, i64 %mul24
  br label %for.body28

for.cond26:                                       ; preds = %for.body28
  %inc37 = add nuw nsw i64 %channel25.024, 1
  %exitcond31.not = icmp eq i64 %inc37, 3
  br i1 %exitcond31.not, label %for.inc39, label %for.body28, !llvm.loop !12

for.body28:                                       ; preds = %for.body20, %for.cond26
  %channel25.024 = phi i64 [ 0, %for.body20 ], [ %inc37, %for.cond26 ]
  %gep = getelementptr float, ptr %invariant.gep, i64 %channel25.024
  %11 = load float, ptr %gep, align 4
  %sub31 = fsub float %11, %mul22
  %12 = tail call noundef float @llvm.fabs.f32(float %sub31)
  %cmp33 = fcmp ogt float %12, 0x3EE4F8B580000000
  br i1 %cmp33, label %return, label %for.cond26

for.inc39:                                        ; preds = %for.cond26
  %inc40 = add nuw i64 %idx17.026, 1
  %exitcond32.not = icmp eq i64 %inc40, %call
  br i1 %exitcond32.not, label %return, label %for.body20, !llvm.loop !13

return:                                           ; preds = %for.inc13, %_ZN9Imath_3_14halfC2Ef.exit, %for.inc39, %for.body28, %for.cond.preheader, %if.else
  %retval.0 = phi i1 [ true, %if.else ], [ true, %for.cond.preheader ], [ false, %for.body28 ], [ true, %for.inc39 ], [ false, %_ZN9Imath_3_14halfC2Ef.exit ], [ true, %for.inc13 ]
  ret i1 %retval.0
}